target datalayout = "e-m:e-p270:32:32-p271:32:32-p272:64:64-i64:64-i128:128-f80:128-n8:16:32:64-S128"
target triple = "x86_64-pc-linux-gnu"

@.str.42 = private unnamed_addr constant [7 x i8] c"ignore\00", align 1
@.str.43 = private unnamed_addr constant [5 x i8] c"warn\00", align 1
@.str.44 = private unnamed_addr constant [7 x i8] c"refuse\00", align 1
@.str.45 = private unnamed_addr constant [14 x i8] c"updateinstead\00", align 1

; Function Attrs: nounwind uwtable
define internal i32 @parse_deny_action(ptr noundef %0, ptr noundef %1) #0 {
  %3 = alloca i32, align 4
  %4 = alloca ptr, align 8
  %5 = alloca ptr, align 8
  store ptr %0, ptr %4, align 8, !tbaa !11
  store ptr %1, ptr %5, align 8, !tbaa !11
  %6 = load ptr, ptr %5, align 8, !tbaa !11
  %7 = icmp ne ptr %6, null
  br i1 %7, label %8, label %29

8:                                                ; preds = %2
  %9 = load ptr, ptr %5, align 8, !tbaa !11
  %10 = call i32 @strcasecmp(ptr noundef %9, ptr noundef @.str.42) #17
  %11 = icmp ne i32 %10, 0
  br i1 %11, label %13, label %12

12:                                               ; preds = %8
  store i32 1, ptr %3, align 4
  br label %36

13:                                               ; preds = %8
  %14 = load ptr, ptr %5, align 8, !tbaa !11
  %15 = call i32 @strcasecmp(ptr noundef %14, ptr noundef @.str.43) #17
  %16 = icmp ne i32 %15, 0
  br i1 %16, label %18, label %17

17:                                               ; preds = %13
  store i32 2, ptr %3, align 4
  br label %36

18:                                               ; preds = %13
  %19 = load ptr, ptr %5, align 8, !tbaa !11
  %20 = call i32 @strcasecmp(ptr noundef %19, ptr noundef @.str.44) #17
  %21 = icmp ne i32 %20, 0
  br i1 %21, label %23, label %22

22:                                               ; preds = %18
  store i32 3, ptr %3, align 4
  br label %36

23:                                               ; preds = %18
  %24 = load ptr, ptr %5, align 8, !tbaa !11
  %25 = call i32 @strcasecmp(ptr noundef %24, ptr noundef @.str.45) #17
  %26 = icmp ne i32 %25, 0
  br i1 %26, label %28, label %27

27:                                               ; preds = %23
  store i32 4, ptr %3, align 4
  br label %36

28:                                               ; preds = %23
  br label %29

29:                                               ; preds = %28, %2
  %30 = load ptr, ptr %4, align 8, !tbaa !11
  %31 = load ptr, ptr %5, align 8, !tbaa !11
  %32 = call i32 @git_config_bool(ptr noundef %30, ptr noundef %31)
  %33 = icmp ne i32 %32, 0
  br i1 %33, label %34, label %35

34:                                               ; preds = %29
  store i32 3, ptr %3, align 4
  br label %36

35:                                               ; preds = %29
  store i32 1, ptr %3, align 4
  br label %36

36:                                               ; preds = %35, %34, %27, %22, %17, %12
  %37 = load i32, ptr %3, align 4
  ret i32 %37
}