; Function Attrs: nounwind uwtable
define internal fastcc range(i32 1, 5) i32 @parse_deny_action(ptr noundef %0, ptr noundef %1) unnamed_addr #0 {
  %.not = icmp eq ptr %1, null
  br i1 %.not, label %11, label %3

3:                                                ; preds = %2
  %4 = tail call i32 @strcasecmp(ptr noundef nonnull %1, ptr noundef nonnull @.str.42) #23
  %.not8 = icmp eq i32 %4, 0
  br i1 %.not8, label %13, label %5

5:                                                ; preds = %3
  %6 = tail call i32 @strcasecmp(ptr noundef nonnull %1, ptr noundef nonnull @.str.43) #23
  %.not9 = icmp eq i32 %6, 0
  br i1 %.not9, label %13, label %7

7:                                                ; preds = %5
  %8 = tail call i32 @strcasecmp(ptr noundef nonnull %1, ptr noundef nonnull @.str.44) #23
  %.not10 = icmp eq i32 %8, 0
  br i1 %.not10, label %13, label %9

9:                                                ; preds = %7
  %10 = tail call i32 @strcasecmp(ptr noundef nonnull %1, ptr noundef nonnull @.str.45) #23
  %.not11 = icmp eq i32 %10, 0
  br i1 %.not11, label %13, label %11

11:                                               ; preds = %9, %2
  %12 = tail call i32 @git_config_bool(ptr noundef %0, ptr noundef %1) #21
  %.not12 = icmp eq i32 %12, 0
  %. = select i1 %.not12, i32 1, i32 3
  br label %13

13:                                               ; preds = %11, %9, %7, %5, %3
  %.0 = phi i32 [ 1, %3 ], [ 2, %5 ], [ 3, %7 ], [ 4, %9 ], [ %., %11 ]
  ret i32 %.0
}